target datalayout = "e-m:e-p270:32:32-p271:32:32-p272:64:64-i64:64-i128:128-f80:128-n8:16:32:64-S128"
target triple = "x86_64-pc-linux-gnu"

%struct.mi_os_mem_config_s = type { i64, i64, i64, i64, i64, i8, i8, i8 }

@.str.3 = private unnamed_addr constant [31 x i8] c"/proc/sys/vm/overcommit_memory\00", align 1

; Function Attrs: inlinehint nounwind uwtable
define internal i32 @mi_prim_close(i32 noundef %0) #5 {
  %2 = alloca i32, align 4
  store i32 %0, ptr %2, align 4, !tbaa !19
  %3 = load i32, ptr %2, align 4, !tbaa !19
  %4 = call i64 (i64, ...) @syscall(i64 noundef 3, i32 noundef %3) #7
  %5 = trunc i64 %4 to i32
  ret i32 %5
}

; Function Attrs: inlinehint nounwind uwtable
define internal i64 @mi_prim_read(i32 noundef %0, ptr noundef %1, i64 noundef %2) #5 {
  %4 = alloca i32, align 4
  %5 = alloca ptr, align 8
  %6 = alloca i64, align 8
  store i32 %0, ptr %4, align 4, !tbaa !19
  store ptr %1, ptr %5, align 8, !tbaa !25
  store i64 %2, ptr %6, align 8, !tbaa !8
  %7 = load i32, ptr %4, align 4, !tbaa !19
  %8 = load ptr, ptr %5, align 8, !tbaa !25
  %9 = load i64, ptr %6, align 8, !tbaa !8
  %10 = call i64 (i64, ...) @syscall(i64 noundef 0, i32 noundef %7, ptr noundef %8, i64 noundef %9) #7
  ret i64 %10
}

; Function Attrs: inlinehint nounwind uwtable
define internal i32 @mi_prim_open(ptr noundef %0, i32 noundef %1) #5 {
  %3 = alloca ptr, align 8
  %4 = alloca i32, align 4
  store ptr %0, ptr %3, align 8, !tbaa !33
  store i32 %1, ptr %4, align 4, !tbaa !19
  %5 = load ptr, ptr %3, align 8, !tbaa !33
  %6 = load i32, ptr %4, align 4, !tbaa !19
  %7 = call i64 (i64, ...) @syscall(i64 noundef 2, ptr noundef %5, i32 noundef %6, i32 noundef 0) #7
  %8 = trunc i64 %7 to i32
  ret i32 %8
}

; Function Attrs: nounwind uwtable
define internal zeroext i1 @unix_detect_overcommit() #0 {
  %1 = alloca i8, align 1
  %2 = alloca i32, align 4
  %3 = alloca [32 x i8], align 16
  %4 = alloca i64, align 8
  call void @llvm.lifetime.start.p0(i64 1, ptr %1) #6
  store i8 1, ptr %1, align 1, !tbaa !21
  call void @llvm.lifetime.start.p0(i64 4, ptr %2) #6
  %5 = call i32 @mi_prim_open(ptr noundef @.str.3, i32 noundef 0) #8
  store i32 %5, ptr %2, align 4, !tbaa !19
  %6 = load i32, ptr %2, align 4, !tbaa !19
  %7 = icmp sge i32 %6, 0
  br i1 %7, label %8, label %29

8:                                                ; preds = %0
  call void @llvm.lifetime.start.p0(i64 32, ptr %3) #6
  call void @llvm.lifetime.start.p0(i64 8, ptr %4) #6
  %9 = load i32, ptr %2, align 4, !tbaa !19
  %10 = call i64 @mi_prim_read(i32 noundef %9, ptr noundef %3, i64 noundef 32) #8
  store i64 %10, ptr %4, align 8, !tbaa !8
  %11 = load i32, ptr %2, align 4, !tbaa !19
  %12 = call i32 @mi_prim_close(i32 noundef %11) #8
  %13 = load i64, ptr %4, align 8, !tbaa !8
  %14 = icmp sge i64 %13, 1
  br i1 %14, label %15, label %28

15:                                               ; preds = %8
  %16 = getelementptr inbounds [32 x i8], ptr %3, i64 0, i64 0
  %17 = load i8, ptr %16, align 16, !tbaa !22
  %18 = sext i8 %17 to i32
  %19 = icmp eq i32 %18, 48
  br i1 %19, label %25, label %20

20:                                               ; preds = %15
  %21 = getelementptr inbounds [32 x i8], ptr %3, i64 0, i64 0
  %22 = load i8, ptr %21, align 16, !tbaa !22
  %23 = sext i8 %22 to i32
  %24 = icmp eq i32 %23, 49
  br label %25

25:                                               ; preds = %20, %15
  %26 = phi i1 [ true, %15 ], [ %24, %20 ]
  %27 = zext i1 %26 to i8
  store i8 %27, ptr %1, align 1, !tbaa !21
  br label %28

28:                                               ; preds = %25, %8
  call void @llvm.lifetime.end.p0(i64 8, ptr %4) #6
  call void @llvm.lifetime.end.p0(i64 32, ptr %3) #6
  br label %29

29:                                               ; preds = %28, %0
  %30 = load i8, ptr %1, align 1, !tbaa !21, !range !23, !noundef !24
  %31 = trunc i8 %30 to i1
  call void @llvm.lifetime.end.p0(i64 4, ptr %2) #6
  call void @llvm.lifetime.end.p0(i64 1, ptr %1) #6
  ret i1 %31
}

; Function Attrs: nounwind uwtable
define hidden void @_mi_prim_mem_init(ptr noundef %0) #0 {
  %2 = alloca ptr, align 8
  %3 = alloca i64, align 8
  %4 = alloca i64, align 8
  %5 = alloca i64, align 8
  %6 = alloca i32, align 4
  store ptr %0, ptr %2, align 8, !tbaa !3
  call void @llvm.lifetime.start.p0(i64 8, ptr %3) #6
  %7 = call i64 @sysconf(i32 noundef 30) #7
  store i64 %7, ptr %3, align 8, !tbaa !8
  %8 = load i64, ptr %3, align 8, !tbaa !8
  %9 = icmp sgt i64 %8, 0
  br i1 %9, label %10, label %37

10:                                               ; preds = %1
  %11 = load i64, ptr %3, align 8, !tbaa !8
  %12 = load ptr, ptr %2, align 8, !tbaa !3
  %13 = getelementptr inbounds nuw %struct.mi_os_mem_config_s, ptr %12, i32 0, i32 0
  store i64 %11, ptr %13, align 8, !tbaa !10
  %14 = load i64, ptr %3, align 8, !tbaa !8
  %15 = load ptr, ptr %2, align 8, !tbaa !3
  %16 = getelementptr inbounds nuw %struct.mi_os_mem_config_s, ptr %15, i32 0, i32 2
  store i64 %14, ptr %16, align 8, !tbaa !13
  call void @llvm.lifetime.start.p0(i64 8, ptr %4) #6
  %17 = call i64 @sysconf(i32 noundef 85) #7
  store i64 %17, ptr %4, align 8, !tbaa !8
  call void @llvm.lifetime.start.p0(i64 8, ptr %5) #6
  %18 = load i64, ptr %3, align 8, !tbaa !8
  %19 = udiv i64 %18, 1024
  store i64 %19, ptr %5, align 8, !tbaa !8
  %20 = load i64, ptr %5, align 8, !tbaa !8
  %21 = icmp ugt i64 %20, 0
  br i1 %21, label %22, label %36

22:                                               ; preds = %10
  %23 = load i64, ptr %4, align 8, !tbaa !8
  %24 = icmp sgt i64 %23, 0
  br i1 %24, label %25, label %36

25:                                               ; preds = %22
  %26 = load i64, ptr %4, align 8, !tbaa !8
  %27 = load i64, ptr %5, align 8, !tbaa !8
  %28 = udiv i64 -1, %27
  %29 = icmp ule i64 %26, %28
  br i1 %29, label %30, label %36

30:                                               ; preds = %25
  %31 = load i64, ptr %4, align 8, !tbaa !8
  %32 = load i64, ptr %5, align 8, !tbaa !8
  %33 = mul i64 %31, %32
  %34 = load ptr, ptr %2, align 8, !tbaa !3
  %35 = getelementptr inbounds nuw %struct.mi_os_mem_config_s, ptr %34, i32 0, i32 3
  store i64 %33, ptr %35, align 8, !tbaa !14
  br label %36

36:                                               ; preds = %30, %25, %22, %10
  call void @llvm.lifetime.end.p0(i64 8, ptr %5) #6
  call void @llvm.lifetime.end.p0(i64 8, ptr %4) #6
  br label %37

37:                                               ; preds = %36, %1
  %38 = load ptr, ptr %2, align 8, !tbaa !3
  %39 = getelementptr inbounds nuw %struct.mi_os_mem_config_s, ptr %38, i32 0, i32 1
  store i64 2097152, ptr %39, align 8, !tbaa !15
  %40 = call zeroext i1 @unix_detect_overcommit() #8
  %41 = load ptr, ptr %2, align 8, !tbaa !3
  %42 = getelementptr inbounds nuw %struct.mi_os_mem_config_s, ptr %41, i32 0, i32 5
  %43 = zext i1 %40 to i8
  store i8 %43, ptr %42, align 8, !tbaa !16
  %44 = load ptr, ptr %2, align 8, !tbaa !3
  %45 = getelementptr inbounds nuw %struct.mi_os_mem_config_s, ptr %44, i32 0, i32 6
  store i8 1, ptr %45, align 1, !tbaa !17
  %46 = load ptr, ptr %2, align 8, !tbaa !3
  %47 = getelementptr inbounds nuw %struct.mi_os_mem_config_s, ptr %46, i32 0, i32 7
  store i8 1, ptr %47, align 2, !tbaa !18
  %48 = call zeroext i1 @mi_option_is_enabled(i32 noundef 6) #8
  br i1 %48, label %55, label %49

49:                                               ; preds = %37
  call void @llvm.lifetime.start.p0(i64 4, ptr %6) #6
  store i32 0, ptr %6, align 4, !tbaa !19
  %50 = call i32 (i32, ...) @prctl(i32 noundef 42, ptr noundef %6, i32 noundef 0, i32 noundef 0, i32 noundef 0) #7
  %51 = icmp ne i32 %50, 0
  br i1 %51, label %52, label %54

52:                                               ; preds = %49
  store i32 1, ptr %6, align 4, !tbaa !19
  %53 = call i32 (i32, ...) @prctl(i32 noundef 41, ptr noundef %6, i32 noundef 0, i32 noundef 0, i32 noundef 0) #7
  br label %54

54:                                               ; preds = %52, %49
  call void @llvm.lifetime.end.p0(i64 4, ptr %6) #6
  br label %55

55:                                               ; preds = %54, %37
  call void @llvm.lifetime.end.p0(i64 8, ptr %3) #6
  ret void
}